target datalayout = "e-m:e-p270:32:32-p271:32:32-p272:64:64-i64:64-i128:128-f80:128-n8:16:32:64-S128"
target triple = "x86_64-pc-linux-gnu"

%struct.redisServer = type { i32, i64, ptr, ptr, ptr, i32, i32, i32, i32, i32, ptr, ptr, ptr, ptr, ptr, i32, i32, i32, i32, i64, i32, i32, i32, i32, ptr, i32, i32, [41 x i8], i32, i64, i32, i32, i32, ptr, ptr, i32, i32, i64, ptr, ptr, ptr, ptr, [2 x i32], i32, i32, i32, i32, i32, i32, [16 x ptr], i32, ptr, ptr, i32, [8 x %struct.connListener], i32, %struct.connListener, ptr, ptr, ptr, ptr, ptr, ptr, ptr, ptr, ptr, ptr, i32, ptr, i32, ptr, [3 x %struct.pause_event], [256 x i8], ptr, i64, i32, i32, [128 x i32], i32, i32, i64, i32, i32, i32, i32, i32, i64, i64, i64, i64, i64, i64, i64, i64, i64, i64, double, i64, i64, i64, i64, i64, i64, i64, i64, i64, i64, i64, i64, i64, i64, i64, i64, i64, i64, i64, i64, i64, double, i64, i64, i64, i64, i64, ptr, i64, i64, i64, %struct.malloc_stats, i64, i64, i64, i64, i64, i64, i64, i64, i64, i64, i64, i64, double, [4 x i64], i64, i64, i64, i64, [128 x i64], [128 x i64], i64, i64, [7 x %struct.anon], i64, i64, i64, i64, i64, i64, [4 x %struct.durationStats], i32, i32, i32, i32, i32, i32, i32, i32, i32, i32, i32, i32, i64, i32, i32, i32, i32, i64, i64, i32, i32, i32, i32, i32, ptr, [3 x %struct.clientBufferLimitsConfig], i32, i32, i32, ptr, i32, i32, i32, i32, i32, i32, ptr, ptr, i32, i32, i64, i64, i64, i64, i64, i32, i32, ptr, i32, i32, i64, i64, i64, i64, i64, i32, i32, i64, i32, i32, i32, i32, i32, i32, i32, i32, ptr, i32, i64, i64, i64, i64, i32, ptr, i32, ptr, i32, i32, i32, i64, i64, i64, i64, i32, i32, i32, i32, i32, i32, ptr, i32, i32, ptr, i32, i32, i32, [2 x i32], i32, %struct.redisOpArray, i32, ptr, i32, ptr, i32, i32, i32, i32, i32, i32, i32, [41 x i8], [41 x i8], i64, i64, i64, i64, i32, i32, ptr, i64, i64, %struct.replDataBuf, i64, i64, i32, i32, i32, i32, i32, i32, i32, i32, i32, i64, ptr, i64, ptr, ptr, ptr, i32, i32, ptr, ptr, i32, i32, i32, i64, i64, i64, i64, ptr, ptr, i32, ptr, i64, i32, i32, i32, i64, i32, i32, i32, i32, ptr, i32, i32, [41 x i8], i64, i32, ptr, i32, i32, i64, i64, i32, i32, i32, i32, i32, i64, [3 x i32], i32, i32, i32, [10 x i32], ptr, ptr, i32, i64, ptr, ptr, i32, i32, i32, i32, i64, i64, i64, i64, i64, i64, i64, i64, i64, i64, i32, i32, i64, i64, i32, i64, i64, i64, i64, i64, ptr, ptr, i32, ptr, i32, i32, i32, i32, i64, i64, ptr, ptr, i32, i32, i32, i32, i32, ptr, ptr, ptr, i32, i32, i32, i32, i32, i32, i32, i64, i32, i32, i64, i32, i32, i32, i32, i32, i32, i32, i64, ptr, ptr, i64, ptr, i32, %struct.aclInfo, i32, i64, i32, i32, i32, %struct.redisTLSContextConfig, ptr, ptr, ptr, ptr, ptr, i64, i32, ptr, i32, i32, i32, i64, i32, ptr }
%struct.connListener = type { [16 x i32], i32, ptr, i32, i32, ptr, ptr }
%struct.pause_event = type { i32, i64 }
%struct.malloc_stats = type { i64, i64, i64, i64, i64, i64, i64, i64, i64, i64, i64 }
%struct.anon = type { i64, i64, [16 x i64], i32 }
%struct.durationStats = type { i64, i64, i64 }
%struct.clientBufferLimitsConfig = type { i64, i64, i64 }
%struct.redisOpArray = type { ptr, i32, i32 }
%struct.replDataBuf = type { ptr, i64, i64, i64, i64 }
%struct.aclInfo = type { i64, i64, i64, i64 }
%struct.redisTLSContextConfig = type { ptr, ptr, ptr, ptr, ptr, ptr, ptr, ptr, ptr, ptr, ptr, ptr, i32, i32, i32, i32 }

@server = external global %struct.redisServer, align 8

; Function Attrs: nounwind uwtable
define dso_local i64 @LFUGetTimeInMinutes() #0 {
  %1 = load atomic i64, ptr getelementptr inbounds nuw (%struct.redisServer, ptr @server, i32 0, i32 366) seq_cst, align 8, !tbaa !70
  %2 = sdiv i64 %1, 60
  %3 = and i64 %2, 65535
  ret i64 %3
}

; Function Attrs: nounwind uwtable
define dso_local i64 @LFUTimeElapsed(i64 noundef %0) #0 {
  %2 = alloca i64, align 8
  %3 = alloca i64, align 8
  %4 = alloca i64, align 8
  %5 = alloca i32, align 4
  store i64 %0, ptr %3, align 8, !tbaa !65
  call void @llvm.lifetime.start.p0(i64 8, ptr %4) #11
  %6 = call i64 @LFUGetTimeInMinutes()
  store i64 %6, ptr %4, align 8, !tbaa !65
  %7 = load i64, ptr %4, align 8, !tbaa !65
  %8 = load i64, ptr %3, align 8, !tbaa !65
  %9 = icmp uge i64 %7, %8
  br i1 %9, label %10, label %14

10:                                               ; preds = %1
  %11 = load i64, ptr %4, align 8, !tbaa !65
  %12 = load i64, ptr %3, align 8, !tbaa !65
  %13 = sub i64 %11, %12
  store i64 %13, ptr %2, align 8
  store i32 1, ptr %5, align 4
  br label %19

14:                                               ; preds = %1
  %15 = load i64, ptr %3, align 8, !tbaa !65
  %16 = sub i64 65535, %15
  %17 = load i64, ptr %4, align 8, !tbaa !65
  %18 = add i64 %16, %17
  store i64 %18, ptr %2, align 8
  store i32 1, ptr %5, align 4
  br label %19

19:                                               ; preds = %14, %10
  call void @llvm.lifetime.end.p0(i64 8, ptr %4) #11
  %20 = load i64, ptr %2, align 8
  ret i64 %20
}

; Function Attrs: nounwind uwtable
define dso_local i64 @LFUDecrAndReturn(ptr noundef %0) #0 {
  %2 = alloca ptr, align 8
  %3 = alloca i64, align 8
  %4 = alloca i64, align 8
  %5 = alloca i64, align 8
  store ptr %0, ptr %2, align 8, !tbaa !40
  call void @llvm.lifetime.start.p0(i64 8, ptr %3) #11
  %6 = load ptr, ptr %2, align 8, !tbaa !40
  %7 = load i32, ptr %6, align 8
  %8 = lshr i32 %7, 8
  %9 = ashr i32 %8, 8
  %10 = sext i32 %9 to i64
  store i64 %10, ptr %3, align 8, !tbaa !65
  call void @llvm.lifetime.start.p0(i64 8, ptr %4) #11
  %11 = load ptr, ptr %2, align 8, !tbaa !40
  %12 = load i32, ptr %11, align 8
  %13 = lshr i32 %12, 8
  %14 = and i32 %13, 255
  %15 = sext i32 %14 to i64
  store i64 %15, ptr %4, align 8, !tbaa !65
  call void @llvm.lifetime.start.p0(i64 8, ptr %5) #11
  %16 = load i32, ptr getelementptr inbounds nuw (%struct.redisServer, ptr @server, i32 0, i32 337), align 8, !tbaa !66
  %17 = icmp ne i32 %16, 0
  br i1 %17, label %18, label %24

18:                                               ; preds = %1
  %19 = load i64, ptr %3, align 8, !tbaa !65
  %20 = call i64 @LFUTimeElapsed(i64 noundef %19)
  %21 = load i32, ptr getelementptr inbounds nuw (%struct.redisServer, ptr @server, i32 0, i32 337), align 8, !tbaa !66
  %22 = sext i32 %21 to i64
  %23 = udiv i64 %20, %22
  br label %25

24:                                               ; preds = %1
  br label %25

25:                                               ; preds = %24, %18
  %26 = phi i64 [ %23, %18 ], [ 0, %24 ]
  store i64 %26, ptr %5, align 8, !tbaa !65
  %27 = load i64, ptr %5, align 8, !tbaa !65
  %28 = icmp ne i64 %27, 0
  br i1 %28, label %29, label %40

29:                                               ; preds = %25
  %30 = load i64, ptr %5, align 8, !tbaa !65
  %31 = load i64, ptr %4, align 8, !tbaa !65
  %32 = icmp ugt i64 %30, %31
  br i1 %32, label %33, label %34

33:                                               ; preds = %29
  br label %38

34:                                               ; preds = %29
  %35 = load i64, ptr %4, align 8, !tbaa !65
  %36 = load i64, ptr %5, align 8, !tbaa !65
  %37 = sub i64 %35, %36
  br label %38

38:                                               ; preds = %34, %33
  %39 = phi i64 [ 0, %33 ], [ %37, %34 ]
  store i64 %39, ptr %4, align 8, !tbaa !65
  br label %40

40:                                               ; preds = %38, %25
  %41 = load i64, ptr %4, align 8, !tbaa !65
  call void @llvm.lifetime.end.p0(i64 8, ptr %5) #11
  call void @llvm.lifetime.end.p0(i64 8, ptr %4) #11
  call void @llvm.lifetime.end.p0(i64 8, ptr %3) #11
  ret i64 %41
}