; Function Attrs: mustprogress nofree norecurse nounwind willreturn memory(readwrite, argmem: read, inaccessiblemem: none) uwtable
define dso_local range(i64 0, 256) i64 @LFUDecrAndReturn(ptr noundef readonly captures(none) %0) local_unnamed_addr #6 {
  %2 = load i32, ptr %0, align 8
  %3 = lshr i32 %2, 8
  %4 = and i32 %3, 255
  %5 = zext nneg i32 %4 to i64
  %6 = load i32, ptr getelementptr inbounds nuw (i8, ptr @server, i64 7552), align 8, !tbaa !51
  %.not = icmp eq i32 %6, 0
  br i1 %.not, label %.thread, label %7

7:                                                ; preds = %1
  %8 = lshr i32 %2, 16
  %9 = zext nneg i32 %8 to i64
  %10 = load atomic i64, ptr getelementptr inbounds nuw (i8, ptr @server, i64 7784) seq_cst, align 8, !tbaa !52
  %11 = sdiv i64 %10, 60
  %12 = and i64 %11, 65535
  %.not.i = icmp samesign ult i64 %12, %9
  %13 = sub nsw i64 %12, %9
  %14 = add nsw i64 %13, 65535
  %.0.i = select i1 %.not.i, i64 %14, i64 %13
  %15 = load i32, ptr getelementptr inbounds nuw (i8, ptr @server, i64 7552), align 8, !tbaa !51
  %16 = sext i32 %15 to i64
  %17 = udiv i64 %.0.i, %16
  %.not9 = icmp ult i64 %.0.i, %16
  %18 = tail call i64 @llvm.usub.sat.i64(i64 %5, i64 %17)
  %cond.fr = freeze i1 %.not9
  br i1 %cond.fr, label %.thread, label %19

.thread:                                          ; preds = %1, %7
  br label %19

19:                                               ; preds = %7, %.thread
  %20 = phi i64 [ %5, %.thread ], [ %18, %7 ]
  ret i64 %20
}